target datalayout = "e-m:e-p270:32:32-p271:32:32-p272:64:64-i64:64-i128:128-f80:128-n8:16:32:64-S128"
target triple = "x86_64-pc-linux-gnu"

%struct.ident_t = type { i32, i32, i32, i32, ptr }
%class.anon.2 = type { ptr, ptr }

@1 = private unnamed_addr constant %struct.ident_t { i32 0, i32 514, i32 0, i32 22, ptr @0 }, align 8

; Function Attrs: inlinehint mustprogress nounwind ssp uwtable
define linkonce_odr hidden void @_ZN6open3d1t8geometry6kernel9transform21TransformPointsKernelIfEEvPKT_PS5_(ptr noundef %0, ptr noundef %1) #3 comdat {
  %3 = alloca ptr, align 8
  %4 = alloca ptr, align 8
  %5 = alloca [4 x float], align 16
  store ptr %0, ptr %3, align 8, !tbaa !21
  store ptr %1, ptr %4, align 8, !tbaa !21
  call void @llvm.lifetime.start.p0(i64 16, ptr %5) #25
  %6 = load ptr, ptr %3, align 8, !tbaa !21
  %7 = getelementptr inbounds float, ptr %6, i64 0
  %8 = load float, ptr %7, align 4, !tbaa !136
  %9 = load ptr, ptr %4, align 8, !tbaa !21
  %10 = getelementptr inbounds float, ptr %9, i64 0
  %11 = load float, ptr %10, align 4, !tbaa !136
  %12 = load ptr, ptr %3, align 8, !tbaa !21
  %13 = getelementptr inbounds float, ptr %12, i64 1
  %14 = load float, ptr %13, align 4, !tbaa !136
  %15 = load ptr, ptr %4, align 8, !tbaa !21
  %16 = getelementptr inbounds float, ptr %15, i64 1
  %17 = load float, ptr %16, align 4, !tbaa !136
  %18 = fmul float %14, %17
  %19 = call float @llvm.fmuladd.f32(float %8, float %11, float %18)
  %20 = load ptr, ptr %3, align 8, !tbaa !21
  %21 = getelementptr inbounds float, ptr %20, i64 2
  %22 = load float, ptr %21, align 4, !tbaa !136
  %23 = load ptr, ptr %4, align 8, !tbaa !21
  %24 = getelementptr inbounds float, ptr %23, i64 2
  %25 = load float, ptr %24, align 4, !tbaa !136
  %26 = call float @llvm.fmuladd.f32(float %22, float %25, float %19)
  %27 = load ptr, ptr %3, align 8, !tbaa !21
  %28 = getelementptr inbounds float, ptr %27, i64 3
  %29 = load float, ptr %28, align 4, !tbaa !136
  %30 = fadd float %26, %29
  store float %30, ptr %5, align 4, !tbaa !136
  %31 = getelementptr inbounds float, ptr %5, i64 1
  %32 = load ptr, ptr %3, align 8, !tbaa !21
  %33 = getelementptr inbounds float, ptr %32, i64 4
  %34 = load float, ptr %33, align 4, !tbaa !136
  %35 = load ptr, ptr %4, align 8, !tbaa !21
  %36 = getelementptr inbounds float, ptr %35, i64 0
  %37 = load float, ptr %36, align 4, !tbaa !136
  %38 = load ptr, ptr %3, align 8, !tbaa !21
  %39 = getelementptr inbounds float, ptr %38, i64 5
  %40 = load float, ptr %39, align 4, !tbaa !136
  %41 = load ptr, ptr %4, align 8, !tbaa !21
  %42 = getelementptr inbounds float, ptr %41, i64 1
  %43 = load float, ptr %42, align 4, !tbaa !136
  %44 = fmul float %40, %43
  %45 = call float @llvm.fmuladd.f32(float %34, float %37, float %44)
  %46 = load ptr, ptr %3, align 8, !tbaa !21
  %47 = getelementptr inbounds float, ptr %46, i64 6
  %48 = load float, ptr %47, align 4, !tbaa !136
  %49 = load ptr, ptr %4, align 8, !tbaa !21
  %50 = getelementptr inbounds float, ptr %49, i64 2
  %51 = load float, ptr %50, align 4, !tbaa !136
  %52 = call float @llvm.fmuladd.f32(float %48, float %51, float %45)
  %53 = load ptr, ptr %3, align 8, !tbaa !21
  %54 = getelementptr inbounds float, ptr %53, i64 7
  %55 = load float, ptr %54, align 4, !tbaa !136
  %56 = fadd float %52, %55
  store float %56, ptr %31, align 4, !tbaa !136
  %57 = getelementptr inbounds float, ptr %5, i64 2
  %58 = load ptr, ptr %3, align 8, !tbaa !21
  %59 = getelementptr inbounds float, ptr %58, i64 8
  %60 = load float, ptr %59, align 4, !tbaa !136
  %61 = load ptr, ptr %4, align 8, !tbaa !21
  %62 = getelementptr inbounds float, ptr %61, i64 0
  %63 = load float, ptr %62, align 4, !tbaa !136
  %64 = load ptr, ptr %3, align 8, !tbaa !21
  %65 = getelementptr inbounds float, ptr %64, i64 9
  %66 = load float, ptr %65, align 4, !tbaa !136
  %67 = load ptr, ptr %4, align 8, !tbaa !21
  %68 = getelementptr inbounds float, ptr %67, i64 1
  %69 = load float, ptr %68, align 4, !tbaa !136
  %70 = fmul float %66, %69
  %71 = call float @llvm.fmuladd.f32(float %60, float %63, float %70)
  %72 = load ptr, ptr %3, align 8, !tbaa !21
  %73 = getelementptr inbounds float, ptr %72, i64 10
  %74 = load float, ptr %73, align 4, !tbaa !136
  %75 = load ptr, ptr %4, align 8, !tbaa !21
  %76 = getelementptr inbounds float, ptr %75, i64 2
  %77 = load float, ptr %76, align 4, !tbaa !136
  %78 = call float @llvm.fmuladd.f32(float %74, float %77, float %71)
  %79 = load ptr, ptr %3, align 8, !tbaa !21
  %80 = getelementptr inbounds float, ptr %79, i64 11
  %81 = load float, ptr %80, align 4, !tbaa !136
  %82 = fadd float %78, %81
  store float %82, ptr %57, align 4, !tbaa !136
  %83 = getelementptr inbounds float, ptr %5, i64 3
  %84 = load ptr, ptr %3, align 8, !tbaa !21
  %85 = getelementptr inbounds float, ptr %84, i64 12
  %86 = load float, ptr %85, align 4, !tbaa !136
  %87 = load ptr, ptr %4, align 8, !tbaa !21
  %88 = getelementptr inbounds float, ptr %87, i64 0
  %89 = load float, ptr %88, align 4, !tbaa !136
  %90 = load ptr, ptr %3, align 8, !tbaa !21
  %91 = getelementptr inbounds float, ptr %90, i64 13
  %92 = load float, ptr %91, align 4, !tbaa !136
  %93 = load ptr, ptr %4, align 8, !tbaa !21
  %94 = getelementptr inbounds float, ptr %93, i64 1
  %95 = load float, ptr %94, align 4, !tbaa !136
  %96 = fmul float %92, %95
  %97 = call float @llvm.fmuladd.f32(float %86, float %89, float %96)
  %98 = load ptr, ptr %3, align 8, !tbaa !21
  %99 = getelementptr inbounds float, ptr %98, i64 14
  %100 = load float, ptr %99, align 4, !tbaa !136
  %101 = load ptr, ptr %4, align 8, !tbaa !21
  %102 = getelementptr inbounds float, ptr %101, i64 2
  %103 = load float, ptr %102, align 4, !tbaa !136
  %104 = call float @llvm.fmuladd.f32(float %100, float %103, float %97)
  %105 = load ptr, ptr %3, align 8, !tbaa !21
  %106 = getelementptr inbounds float, ptr %105, i64 15
  %107 = load float, ptr %106, align 4, !tbaa !136
  %108 = fadd float %104, %107
  store float %108, ptr %83, align 4, !tbaa !136
  %109 = getelementptr inbounds [4 x float], ptr %5, i64 0, i64 0
  %110 = load float, ptr %109, align 16, !tbaa !136
  %111 = getelementptr inbounds [4 x float], ptr %5, i64 0, i64 3
  %112 = load float, ptr %111, align 4, !tbaa !136
  %113 = fdiv float %110, %112
  %114 = load ptr, ptr %4, align 8, !tbaa !21
  %115 = getelementptr inbounds float, ptr %114, i64 0
  store float %113, ptr %115, align 4, !tbaa !136
  %116 = getelementptr inbounds [4 x float], ptr %5, i64 0, i64 1
  %117 = load float, ptr %116, align 4, !tbaa !136
  %118 = getelementptr inbounds [4 x float], ptr %5, i64 0, i64 3
  %119 = load float, ptr %118, align 4, !tbaa !136
  %120 = fdiv float %117, %119
  %121 = load ptr, ptr %4, align 8, !tbaa !21
  %122 = getelementptr inbounds float, ptr %121, i64 1
  store float %120, ptr %122, align 4, !tbaa !136
  %123 = getelementptr inbounds [4 x float], ptr %5, i64 0, i64 2
  %124 = load float, ptr %123, align 8, !tbaa !136
  %125 = getelementptr inbounds [4 x float], ptr %5, i64 0, i64 3
  %126 = load float, ptr %125, align 4, !tbaa !136
  %127 = fdiv float %124, %126
  %128 = load ptr, ptr %4, align 8, !tbaa !21
  %129 = getelementptr inbounds float, ptr %128, i64 2
  store float %127, ptr %129, align 4, !tbaa !136
  call void @llvm.lifetime.end.p0(i64 16, ptr %5) #25
  ret void
}

; Function Attrs: noinline noreturn nounwind ssp uwtable
define linkonce_odr hidden void @__clang_call_terminate(ptr noundef %0) #23 comdat {
  %2 = call ptr @__cxa_begin_catch(ptr %0) #25
  call void @_ZSt9terminatev() #28
  unreachable
}

; Function Attrs: inlinehint mustprogress ssp uwtable
define internal void @"_ZZZZN6open3d1t8geometry6kernel9transform18TransformPointsCPUERKNS_4core6TensorERS5_ENK3$_0clEvENKUlvE_clEvENKUllE_clEl"(ptr noundef nonnull align 8 dereferenceable(16) %0, i64 noundef %1) #2 align 2 {
  %3 = alloca ptr, align 8
  %4 = alloca i64, align 8
  store ptr %0, ptr %3, align 8, !tbaa !9
  store i64 %1, ptr %4, align 8, !tbaa !16
  %5 = load ptr, ptr %3, align 8
  %6 = getelementptr inbounds nuw %class.anon.2, ptr %5, i32 0, i32 0
  %7 = load ptr, ptr %6, align 8, !tbaa !26
  %8 = getelementptr inbounds nuw %class.anon.2, ptr %5, i32 0, i32 1
  %9 = load ptr, ptr %8, align 8, !tbaa !28
  %10 = load i64, ptr %4, align 8, !tbaa !16
  %11 = mul nsw i64 3, %10
  %12 = getelementptr inbounds float, ptr %9, i64 %11
  call void @_ZN6open3d1t8geometry6kernel9transform21TransformPointsKernelIfEEvPKT_PS5_(ptr noundef %7, ptr noundef %12)
  ret void
}

; Function Attrs: alwaysinline norecurse nounwind ssp uwtable
define internal void @"_ZN6open3d4core15ParallelForCPU_IZZZNS_1t8geometry6kernel9transform18TransformPointsCPUERKNS0_6TensorERS6_ENK3$_0clEvENKUlvE_clEvEUllE_EEvRKNS0_6DeviceElRKT_.omp_outlined"(ptr noalias noundef %0, ptr noalias noundef %1, ptr noundef nonnull align 8 dereferenceable(8) %2, ptr noundef nonnull align 8 dereferenceable(16) %3) #24 personality ptr @__gxx_personality_v0 {
  %5 = alloca ptr, align 8
  %6 = alloca ptr, align 8
  %7 = alloca ptr, align 8
  %8 = alloca ptr, align 8
  %9 = alloca ptr, align 8
  %10 = alloca i64, align 8
  %11 = alloca i64, align 8
  %12 = alloca i64, align 8
  %13 = alloca i64, align 8
  %14 = alloca i64, align 8
  %15 = alloca i64, align 8
  %16 = alloca i64, align 8
  %17 = alloca i32, align 4
  %18 = alloca i64, align 8
  store ptr %0, ptr %5, align 8, !tbaa !209
  store ptr %1, ptr %6, align 8, !tbaa !209
  store ptr %2, ptr %7, align 8, !tbaa !351
  store ptr %3, ptr %8, align 8, !tbaa !9
  %19 = load ptr, ptr %7, align 8, !tbaa !351
  %20 = load ptr, ptr %8, align 8, !tbaa !9
  store ptr %20, ptr %9, align 8
  call void @llvm.lifetime.start.p0(i64 8, ptr %10) #25
  call void @llvm.lifetime.start.p0(i64 8, ptr %11) #25
  %21 = load i64, ptr %19, align 8, !tbaa !16
  store i64 %21, ptr %11, align 8, !tbaa !16
  call void @llvm.lifetime.start.p0(i64 8, ptr %12) #25
  %22 = load i64, ptr %11, align 8, !tbaa !16
  %23 = sub nsw i64 %22, 0
  %24 = sdiv i64 %23, 1
  %25 = sub nsw i64 %24, 1
  store i64 %25, ptr %12, align 8, !tbaa !16
  call void @llvm.lifetime.start.p0(i64 8, ptr %13) #25
  store i64 0, ptr %13, align 8, !tbaa !16
  call void @llvm.lifetime.end.p0(i64 8, ptr %13) #25
  %26 = load i64, ptr %11, align 8, !tbaa !16
  %27 = icmp slt i64 0, %26
  br i1 %27, label %28, label %62

28:                                               ; preds = %4
  call void @llvm.lifetime.start.p0(i64 8, ptr %14) #25
  store i64 0, ptr %14, align 8, !tbaa !16
  call void @llvm.lifetime.start.p0(i64 8, ptr %15) #25
  %29 = load i64, ptr %12, align 8, !tbaa !16
  store i64 %29, ptr %15, align 8, !tbaa !16
  call void @llvm.lifetime.start.p0(i64 8, ptr %16) #25
  store i64 1, ptr %16, align 8, !tbaa !16
  call void @llvm.lifetime.start.p0(i64 4, ptr %17) #25
  store i32 0, ptr %17, align 4, !tbaa !39
  call void @llvm.lifetime.start.p0(i64 8, ptr %18) #25
  %30 = load ptr, ptr %5, align 8
  %31 = load i32, ptr %30, align 4, !tbaa !39
  call void @__kmpc_for_static_init_8(ptr @1, i32 %31, i32 34, ptr %17, ptr %14, ptr %15, ptr %16, i64 1, i64 1)
  %32 = load i64, ptr %15, align 8, !tbaa !16
  %33 = load i64, ptr %12, align 8, !tbaa !16
  %34 = icmp sgt i64 %32, %33
  br i1 %34, label %35, label %37

35:                                               ; preds = %28
  %36 = load i64, ptr %12, align 8, !tbaa !16
  br label %39

37:                                               ; preds = %28
  %38 = load i64, ptr %15, align 8, !tbaa !16
  br label %39

39:                                               ; preds = %37, %35
  %40 = phi i64 [ %36, %35 ], [ %38, %37 ]
  store i64 %40, ptr %15, align 8, !tbaa !16
  %41 = load i64, ptr %14, align 8, !tbaa !16
  store i64 %41, ptr %10, align 8, !tbaa !16
  br label %42

42:                                               ; preds = %55, %39
  %43 = load i64, ptr %10, align 8, !tbaa !16
  %44 = load i64, ptr %15, align 8, !tbaa !16
  %45 = icmp sle i64 %43, %44
  br i1 %45, label %47, label %46

46:                                               ; preds = %42
  br label %58

47:                                               ; preds = %42
  %48 = load i64, ptr %10, align 8, !tbaa !16
  %49 = mul nsw i64 %48, 1
  %50 = add nsw i64 0, %49
  store i64 %50, ptr %18, align 8, !tbaa !16
  %51 = load ptr, ptr %9, align 8, !tbaa !9
  %52 = load i64, ptr %18, align 8, !tbaa !16
  invoke void @"_ZZZZN6open3d1t8geometry6kernel9transform18TransformPointsCPUERKNS_4core6TensorERS5_ENK3$_0clEvENKUlvE_clEvENKUllE_clEl"(ptr noundef nonnull align 8 dereferenceable(16) %51, i64 noundef %52)
          to label %53 unwind label %63

53:                                               ; preds = %47
  br label %54

54:                                               ; preds = %53
  br label %55

55:                                               ; preds = %54
  %56 = load i64, ptr %10, align 8, !tbaa !16
  %57 = add nsw i64 %56, 1
  store i64 %57, ptr %10, align 8, !tbaa !16
  br label %42

58:                                               ; preds = %46
  br label %59

59:                                               ; preds = %58
  %60 = load ptr, ptr %5, align 8
  %61 = load i32, ptr %60, align 4, !tbaa !39
  call void @__kmpc_for_static_fini(ptr @1, i32 %61)
  call void @llvm.lifetime.end.p0(i64 8, ptr %18) #25
  call void @llvm.lifetime.end.p0(i64 4, ptr %17) #25
  call void @llvm.lifetime.end.p0(i64 8, ptr %16) #25
  call void @llvm.lifetime.end.p0(i64 8, ptr %15) #25
  call void @llvm.lifetime.end.p0(i64 8, ptr %14) #25
  br label %62

62:                                               ; preds = %59, %4
  call void @llvm.lifetime.end.p0(i64 8, ptr %12) #25
  call void @llvm.lifetime.end.p0(i64 8, ptr %11) #25
  call void @llvm.lifetime.end.p0(i64 8, ptr %10) #25
  ret void

63:                                               ; preds = %47
  %64 = landingpad { ptr, i32 }
          catch ptr null
  %65 = extractvalue { ptr, i32 } %64, 0
  call void @__clang_call_terminate(ptr %65) #28
  unreachable
}