; Function Attrs: alwaysinline norecurse nounwind ssp uwtable
define internal void @"_ZN6open3d4core15ParallelForCPU_IZZZNS_1t8geometry6kernel9transform18TransformPointsCPUERKNS0_6TensorERS6_ENK3$_0clEvENKUlvE_clEvEUllE_EEvRKNS0_6DeviceElRKT_.omp_outlined"(ptr noalias noundef readonly captures(none) %0, ptr noalias readnone captures(none) %1, ptr noundef nonnull readonly align 8 captures(none) dereferenceable(8) %2, ptr noundef nonnull readonly align 8 captures(none) dereferenceable(16) %3) #23 personality ptr @__gxx_personality_v0 {
  %5 = alloca i64, align 8
  %6 = alloca i64, align 8
  %7 = alloca i64, align 8
  %8 = alloca i32, align 4
  %9 = load i64, ptr %2, align 8, !tbaa !9
  %10 = icmp sgt i64 %9, 0
  br i1 %10, label %11, label %76

11:                                               ; preds = %4
  %12 = add nsw i64 %9, -1
  call void @llvm.lifetime.start.p0(i64 8, ptr nonnull %5) #24
  store i64 0, ptr %5, align 8, !tbaa !9
  call void @llvm.lifetime.start.p0(i64 8, ptr nonnull %6) #24
  store i64 %12, ptr %6, align 8, !tbaa !9
  call void @llvm.lifetime.start.p0(i64 8, ptr nonnull %7) #24
  store i64 1, ptr %7, align 8, !tbaa !9
  call void @llvm.lifetime.start.p0(i64 4, ptr nonnull %8) #24
  store i32 0, ptr %8, align 4, !tbaa !146
  %13 = load i32, ptr %0, align 4, !tbaa !146
  call void @__kmpc_for_static_init_8(ptr nonnull @1, i32 %13, i32 34, ptr nonnull %8, ptr nonnull %5, ptr nonnull %6, ptr nonnull %7, i64 1, i64 1)
  %14 = load i64, ptr %6, align 8, !tbaa !9
  %15 = call i64 @llvm.smin.i64(i64 %14, i64 %12)
  store i64 %15, ptr %6, align 8, !tbaa !9
  %16 = load i64, ptr %5, align 8, !tbaa !9
  %.not14 = icmp sgt i64 %16, %15
  br i1 %.not14, label %._crit_edge, label %.lr.ph

.lr.ph:                                           ; preds = %11
  %.val = load ptr, ptr %3, align 8, !tbaa !18
  %17 = getelementptr inbounds nuw i8, ptr %3, i64 8
  %.val13 = load ptr, ptr %17, align 8, !tbaa !21
  %18 = getelementptr inbounds nuw i8, ptr %.val, i64 4
  %19 = getelementptr inbounds nuw i8, ptr %.val, i64 8
  %20 = getelementptr inbounds nuw i8, ptr %.val, i64 12
  %21 = getelementptr inbounds nuw i8, ptr %.val, i64 16
  %22 = getelementptr inbounds nuw i8, ptr %.val, i64 20
  %23 = getelementptr inbounds nuw i8, ptr %.val, i64 24
  %24 = getelementptr inbounds nuw i8, ptr %.val, i64 28
  %25 = getelementptr inbounds nuw i8, ptr %.val, i64 32
  %26 = getelementptr inbounds nuw i8, ptr %.val, i64 36
  %27 = getelementptr inbounds nuw i8, ptr %.val, i64 40
  %28 = getelementptr inbounds nuw i8, ptr %.val, i64 44
  %29 = getelementptr inbounds nuw i8, ptr %.val, i64 48
  %30 = getelementptr inbounds nuw i8, ptr %.val, i64 52
  %31 = getelementptr inbounds nuw i8, ptr %.val, i64 56
  %32 = getelementptr inbounds nuw i8, ptr %.val, i64 60
  br label %33

33:                                               ; preds = %.lr.ph, %33
  %.015 = phi i64 [ %16, %.lr.ph ], [ %75, %33 ]
  %.idx.i = mul nsw i64 %.015, 12
  %34 = getelementptr inbounds i8, ptr %.val13, i64 %.idx.i
  %35 = load float, ptr %.val, align 4, !tbaa !635
  %36 = load float, ptr %34, align 4, !tbaa !635
  %37 = load float, ptr %18, align 4, !tbaa !635
  %38 = getelementptr inbounds nuw i8, ptr %34, i64 4
  %39 = load float, ptr %38, align 4, !tbaa !635
  %40 = fmul float %37, %39
  %41 = call float @llvm.fmuladd.f32(float %35, float %36, float %40)
  %42 = load float, ptr %19, align 4, !tbaa !635
  %43 = getelementptr inbounds nuw i8, ptr %34, i64 8
  %44 = load float, ptr %43, align 4, !tbaa !635
  %45 = call float @llvm.fmuladd.f32(float %42, float %44, float %41)
  %46 = load float, ptr %20, align 4, !tbaa !635
  %47 = fadd float %45, %46
  %48 = load float, ptr %21, align 4, !tbaa !635
  %49 = load float, ptr %22, align 4, !tbaa !635
  %50 = fmul float %39, %49
  %51 = call float @llvm.fmuladd.f32(float %48, float %36, float %50)
  %52 = load float, ptr %23, align 4, !tbaa !635
  %53 = call float @llvm.fmuladd.f32(float %52, float %44, float %51)
  %54 = load float, ptr %24, align 4, !tbaa !635
  %55 = fadd float %54, %53
  %56 = load float, ptr %25, align 4, !tbaa !635
  %57 = load float, ptr %26, align 4, !tbaa !635
  %58 = fmul float %39, %57
  %59 = call float @llvm.fmuladd.f32(float %56, float %36, float %58)
  %60 = load float, ptr %27, align 4, !tbaa !635
  %61 = call float @llvm.fmuladd.f32(float %60, float %44, float %59)
  %62 = load float, ptr %28, align 4, !tbaa !635
  %63 = fadd float %62, %61
  %64 = load float, ptr %29, align 4, !tbaa !635
  %65 = load float, ptr %30, align 4, !tbaa !635
  %66 = fmul float %39, %65
  %67 = call float @llvm.fmuladd.f32(float %64, float %36, float %66)
  %68 = load float, ptr %31, align 4, !tbaa !635
  %69 = call float @llvm.fmuladd.f32(float %68, float %44, float %67)
  %70 = load float, ptr %32, align 4, !tbaa !635
  %71 = fadd float %70, %69
  %72 = fdiv float %47, %71
  store float %72, ptr %34, align 4, !tbaa !635
  %73 = fdiv float %55, %71
  store float %73, ptr %38, align 4, !tbaa !635
  %74 = fdiv float %63, %71
  store float %74, ptr %43, align 4, !tbaa !635
  %75 = add i64 %.015, 1
  %exitcond.not = icmp eq i64 %.015, %15
  br i1 %exitcond.not, label %._crit_edge, label %33

._crit_edge:                                      ; preds = %33, %11
  call void @__kmpc_for_static_fini(ptr nonnull @1, i32 %13)
  call void @llvm.lifetime.end.p0(i64 4, ptr nonnull %8) #24
  call void @llvm.lifetime.end.p0(i64 8, ptr nonnull %7) #24
  call void @llvm.lifetime.end.p0(i64 8, ptr nonnull %6) #24
  call void @llvm.lifetime.end.p0(i64 8, ptr nonnull %5) #24
  br label %76

76:                                               ; preds = %._crit_edge, %4
  ret void
}